; Function Attrs: mustprogress nofree norecurse nosync nounwind willreturn memory(read, inaccessiblemem: none) uwtable
define hidden noundef ptr @_ZN6Assimp4Ogre10VertexData16GetVertexElementENS0_13VertexElement8SemanticEt(ptr noundef nonnull readonly align 8 captures(none) dereferenceable(200) %0, i32 noundef %1, i16 noundef zeroext %2) local_unnamed_addr #9 align 2 {
  %4 = getelementptr inbounds nuw i8, ptr %0, i64 128
  %5 = load ptr, ptr %4, align 8
  %6 = getelementptr inbounds nuw i8, ptr %0, i64 136
  %7 = load ptr, ptr %6, align 8
  %.not18 = icmp eq ptr %5, %7
  br i1 %.not18, label %._crit_edge, label %.lr.ph

.lr.ph:                                           ; preds = %3, %14
  %.sroa.012.019 = phi ptr [ %15, %14 ], [ %5, %3 ]
  %8 = getelementptr inbounds nuw i8, ptr %.sroa.012.019, i64 12
  %9 = load i32, ptr %8, align 4
  %10 = icmp eq i32 %9, %1
  br i1 %10, label %11, label %14

11:                                               ; preds = %.lr.ph
  %12 = load i16, ptr %.sroa.012.019, align 4
  %13 = icmp eq i16 %12, %2
  br i1 %13, label %._crit_edge, label %14

14:                                               ; preds = %.lr.ph, %11
  %15 = getelementptr inbounds nuw i8, ptr %.sroa.012.019, i64 16
  %.not = icmp eq ptr %15, %7
  br i1 %.not, label %._crit_edge, label %.lr.ph

._crit_edge:                                      ; preds = %14, %11, %3
  %spec.select = phi ptr [ null, %3 ], [ %.sroa.012.019, %11 ], [ null, %14 ]
  ret ptr %spec.select
}